target datalayout = "e-m:e-p270:32:32-p271:32:32-p272:64:64-i64:64-i128:128-f80:128-n8:16:32:64-S128"
target triple = "x86_64-pc-linux-gnu"

%struct.re_pattern_buffer = type { ptr, ptr, ptr, i32, i32, ptr, ptr, i32, i32, i32, i32, i32, i32, i32, i32, i32, ptr, ptr, i32, ptr, i32, ptr, i32, i32, i32, i32, i32, i32, ptr, ptr, [256 x i8], i32, i32, i32, ptr }
%struct.UnsetAddrList = type { i32, i32, ptr }
%struct._Node = type { %union.anon.35 }
%union.anon.35 = type { %struct.BagNode }
%struct.BagNode = type { i32, i32, ptr, ptr, i32, %union.anon.37, i32, i32, i32, i32, i32 }
%union.anon.37 = type { %struct.anon.40 }
%struct.anon.40 = type { ptr, ptr }
%struct.anon.36 = type { i32, i32, ptr, ptr }
%struct.UnsetAddr = type { i32, ptr }
%struct.anon.38 = type { i32, i32, i32, i32 }

; Function Attrs: nounwind uwtable
define internal i32 @fix_unset_addr_list(ptr noundef %0, ptr noundef %1) #0 {
  %3 = alloca i32, align 4
  %4 = alloca ptr, align 8
  %5 = alloca ptr, align 8
  %6 = alloca i32, align 4
  %7 = alloca i32, align 4
  %8 = alloca ptr, align 8
  %9 = alloca i32, align 4
  %10 = alloca ptr, align 8
  %11 = alloca i32, align 4
  store ptr %0, ptr %4, align 8, !tbaa !15
  store ptr %1, ptr %5, align 8, !tbaa !8
  call void @llvm.lifetime.start.p0(i64 4, ptr %6) #9
  call void @llvm.lifetime.start.p0(i64 4, ptr %7) #9
  call void @llvm.lifetime.start.p0(i64 8, ptr %8) #9
  call void @llvm.lifetime.start.p0(i64 4, ptr %9) #9
  call void @llvm.lifetime.start.p0(i64 8, ptr %10) #9
  store i32 0, ptr %6, align 4, !tbaa !4
  br label %12

12:                                               ; preds = %78, %2
  %13 = load i32, ptr %6, align 4, !tbaa !4
  %14 = load ptr, ptr %4, align 8, !tbaa !15
  %15 = getelementptr inbounds nuw %struct.UnsetAddrList, ptr %14, i32 0, i32 0
  %16 = load i32, ptr %15, align 8, !tbaa !107
  %17 = icmp slt i32 %13, %16
  br i1 %17, label %18, label %81

18:                                               ; preds = %12
  %19 = load ptr, ptr %4, align 8, !tbaa !15
  %20 = getelementptr inbounds nuw %struct.UnsetAddrList, ptr %19, i32 0, i32 2
  %21 = load ptr, ptr %20, align 8, !tbaa !95
  %22 = load i32, ptr %6, align 4, !tbaa !4
  %23 = sext i32 %22 to i64
  %24 = getelementptr inbounds %struct.UnsetAddr, ptr %21, i64 %23
  %25 = getelementptr inbounds nuw %struct.UnsetAddr, ptr %24, i32 0, i32 1
  %26 = load ptr, ptr %25, align 8, !tbaa !108
  %27 = getelementptr inbounds nuw %struct._Node, ptr %26, i32 0, i32 0
  %28 = getelementptr inbounds nuw %struct.anon.36, ptr %27, i32 0, i32 1
  %29 = load i32, ptr %28, align 4, !tbaa !32
  %30 = and i32 %29, 256
  %31 = icmp ne i32 %30, 0
  br i1 %31, label %48, label %32

32:                                               ; preds = %18
  %33 = load ptr, ptr %4, align 8, !tbaa !15
  %34 = getelementptr inbounds nuw %struct.UnsetAddrList, ptr %33, i32 0, i32 2
  %35 = load ptr, ptr %34, align 8, !tbaa !95
  %36 = load i32, ptr %6, align 4, !tbaa !4
  %37 = sext i32 %36 to i64
  %38 = getelementptr inbounds %struct.UnsetAddr, ptr %35, i64 %37
  %39 = getelementptr inbounds nuw %struct.UnsetAddr, ptr %38, i32 0, i32 1
  %40 = load ptr, ptr %39, align 8, !tbaa !108
  %41 = getelementptr inbounds nuw %struct._Node, ptr %40, i32 0, i32 0
  %42 = getelementptr inbounds nuw %struct.anon.36, ptr %41, i32 0, i32 1
  %43 = load i32, ptr %42, align 4, !tbaa !32
  %44 = and i32 %43, 128
  %45 = icmp ne i32 %44, 0
  br i1 %45, label %46, label %47

46:                                               ; preds = %32
  store i32 -11, ptr %3, align 4
  store i32 1, ptr %11, align 4
  br label %82

47:                                               ; preds = %32
  br label %78

48:                                               ; preds = %18
  %49 = load ptr, ptr %4, align 8, !tbaa !15
  %50 = getelementptr inbounds nuw %struct.UnsetAddrList, ptr %49, i32 0, i32 2
  %51 = load ptr, ptr %50, align 8, !tbaa !95
  %52 = load i32, ptr %6, align 4, !tbaa !4
  %53 = sext i32 %52 to i64
  %54 = getelementptr inbounds %struct.UnsetAddr, ptr %51, i64 %53
  %55 = getelementptr inbounds nuw %struct.UnsetAddr, ptr %54, i32 0, i32 1
  %56 = load ptr, ptr %55, align 8, !tbaa !108
  %57 = getelementptr inbounds nuw %struct._Node, ptr %56, i32 0, i32 0
  store ptr %57, ptr %8, align 8, !tbaa !15
  %58 = load ptr, ptr %8, align 8, !tbaa !15
  %59 = getelementptr inbounds nuw %struct.BagNode, ptr %58, i32 0, i32 5
  %60 = getelementptr inbounds nuw %struct.anon.38, ptr %59, i32 0, i32 1
  %61 = load i32, ptr %60, align 4, !tbaa !32
  store i32 %61, ptr %9, align 4, !tbaa !4
  %62 = load ptr, ptr %4, align 8, !tbaa !15
  %63 = getelementptr inbounds nuw %struct.UnsetAddrList, ptr %62, i32 0, i32 2
  %64 = load ptr, ptr %63, align 8, !tbaa !95
  %65 = load i32, ptr %6, align 4, !tbaa !4
  %66 = sext i32 %65 to i64
  %67 = getelementptr inbounds %struct.UnsetAddr, ptr %64, i64 %66
  %68 = getelementptr inbounds nuw %struct.UnsetAddr, ptr %67, i32 0, i32 0
  %69 = load i32, ptr %68, align 8, !tbaa !110
  store i32 %69, ptr %7, align 4, !tbaa !4
  %70 = load ptr, ptr %5, align 8, !tbaa !8
  %71 = getelementptr inbounds nuw %struct.re_pattern_buffer, ptr %70, i32 0, i32 0
  %72 = load ptr, ptr %71, align 8, !tbaa !29
  %73 = load i32, ptr %7, align 4, !tbaa !4
  %74 = sext i32 %73 to i64
  %75 = getelementptr inbounds i8, ptr %72, i64 %74
  store ptr %75, ptr %10, align 8, !tbaa !104
  %76 = load i32, ptr %9, align 4, !tbaa !4
  %77 = load ptr, ptr %10, align 8, !tbaa !104
  store i32 %76, ptr %77, align 4, !tbaa !4
  br label %78

78:                                               ; preds = %48, %47
  %79 = load i32, ptr %6, align 4, !tbaa !4
  %80 = add nsw i32 %79, 1
  store i32 %80, ptr %6, align 4, !tbaa !4
  br label %12, !llvm.loop !111

81:                                               ; preds = %12
  store i32 0, ptr %3, align 4
  store i32 1, ptr %11, align 4
  br label %82

82:                                               ; preds = %81, %46
  call void @llvm.lifetime.end.p0(i64 8, ptr %10) #9
  call void @llvm.lifetime.end.p0(i64 4, ptr %9) #9
  call void @llvm.lifetime.end.p0(i64 8, ptr %8) #9
  call void @llvm.lifetime.end.p0(i64 4, ptr %7) #9
  call void @llvm.lifetime.end.p0(i64 4, ptr %6) #9
  %83 = load i32, ptr %3, align 4
  ret i32 %83
}